target datalayout = "e-m:e-p270:32:32-p271:32:32-p272:64:64-i64:64-i128:128-f80:128-n8:16:32:64-S128"
target triple = "x86_64-pc-linux-gnu"

%class.FieldInformation = type { %class.QObject, %class.IDataPrintable, ptr, ptr }
%class.QObject = type { ptr, %class.QScopedPointer }
%class.QScopedPointer = type { ptr }
%class.IDataPrintable = type { ptr }

@_ZTV16FieldInformation = external unnamed_addr constant { [15 x ptr], [5 x ptr] }, align 8
@_ZTV14IDataPrintable = linkonce_odr unnamed_addr constant { [5 x ptr] } { [5 x ptr] [ptr null, ptr @_ZTI14IDataPrintable, ptr @_ZN14IDataPrintableD2Ev, ptr @_ZN14IDataPrintableD0Ev, ptr @__cxa_pure_virtual] }, comdat, align 8

; Function Attrs: mustprogress nounwind uwtable
define linkonce_odr void @_ZN14IDataPrintableC2Ev(ptr noundef nonnull align 8 dereferenceable(8) %0) unnamed_addr #2 comdat align 2 {
  %2 = alloca ptr, align 8
  store ptr %0, ptr %2, align 8
  %3 = load ptr, ptr %2, align 8
  store ptr getelementptr inbounds ({ [5 x ptr] }, ptr @_ZTV14IDataPrintable, i32 0, i32 0, i32 2), ptr %3, align 8
  ret void
}

; Function Attrs: mustprogress uwtable
define void @_ZN16FieldInformationC2EP10field_infoP7QObject(ptr noundef nonnull align 8 dereferenceable(40) %0, ptr noundef %1, ptr noundef %2) unnamed_addr #0 align 2 {
  %4 = alloca ptr, align 8
  %5 = alloca ptr, align 8
  %6 = alloca ptr, align 8
  store ptr %0, ptr %4, align 8
  store ptr %1, ptr %5, align 8
  store ptr %2, ptr %6, align 8
  %7 = load ptr, ptr %4, align 8
  %8 = load ptr, ptr %6, align 8
  call void @_ZN7QObjectC2EPS_(ptr noundef nonnull align 8 dereferenceable(16) %7, ptr noundef %8)
  %9 = getelementptr inbounds i8, ptr %7, i64 16
  call void @_ZN14IDataPrintableC2Ev(ptr noundef nonnull align 8 dereferenceable(8) %9) #10
  store ptr getelementptr inbounds ({ [15 x ptr], [5 x ptr] }, ptr @_ZTV16FieldInformation, i32 0, i32 0, i32 2), ptr %7, align 8
  %10 = getelementptr inbounds i8, ptr %7, i64 16
  store ptr getelementptr inbounds ({ [15 x ptr], [5 x ptr] }, ptr @_ZTV16FieldInformation, i32 0, i32 1, i32 2), ptr %10, align 8
  %11 = load ptr, ptr %5, align 8
  %12 = getelementptr inbounds %class.FieldInformation, ptr %7, i32 0, i32 2
  store ptr %11, ptr %12, align 8
  %13 = getelementptr inbounds %class.FieldInformation, ptr %7, i32 0, i32 3
  store ptr null, ptr %13, align 8
  ret void
}